target datalayout = "e-m:e-p270:32:32-p271:32:32-p272:64:64-i64:64-i128:128-f80:128-n8:16:32:64-S128"
target triple = "x86_64-pc-linux-gnu"

%"class.cv::Point_.5" = type { float, float }
%"struct.std::_Vector_base.1" = type { %"struct.std::_Vector_base<cv::Point_<float>, std::allocator<cv::Point_<float>>>::_Vector_impl" }
%"struct.std::_Vector_base<cv::Point_<float>, std::allocator<cv::Point_<float>>>::_Vector_impl" = type { %"struct.std::_Vector_base<cv::Point_<float>, std::allocator<cv::Point_<float>>>::_Vector_impl_data" }
%"struct.std::_Vector_base<cv::Point_<float>, std::allocator<cv::Point_<float>>>::_Vector_impl_data" = type { ptr, ptr, ptr }

; Function Attrs: inlinehint mustprogress nounwind uwtable
define linkonce_odr noundef float @_ZSt4sqrtf(float noundef %0) #8 comdat {
  %2 = alloca float, align 4
  store float %0, ptr %2, align 4, !tbaa !39
  %3 = load float, ptr %2, align 4, !tbaa !39
  %4 = call float @sqrtf(float noundef %3) #3, !tbaa !15
  ret float %4
}

; Function Attrs: mustprogress nounwind uwtable
define linkonce_odr hidden noundef nonnull align 4 dereferenceable(8) ptr @_ZNKSt6vectorIN2cv6Point_IfEESaIS2_EEixEm(ptr noundef nonnull align 8 dereferenceable(24) %0, i64 noundef %1) #6 comdat align 2 {
  %3 = alloca ptr, align 8
  %4 = alloca i64, align 8
  store ptr %0, ptr %3, align 8, !tbaa !3
  store i64 %1, ptr %4, align 8, !tbaa !22
  %5 = load ptr, ptr %3, align 8
  %6 = getelementptr inbounds nuw %"struct.std::_Vector_base.1", ptr %5, i32 0, i32 0
  %7 = getelementptr inbounds nuw %"struct.std::_Vector_base<cv::Point_<float>, std::allocator<cv::Point_<float>>>::_Vector_impl_data", ptr %6, i32 0, i32 0
  %8 = load ptr, ptr %7, align 8, !tbaa !49
  %9 = load i64, ptr %4, align 8, !tbaa !22
  %10 = getelementptr inbounds nuw %"class.cv::Point_.5", ptr %8, i64 %9
  ret ptr %10
}

; Function Attrs: mustprogress nounwind uwtable
define linkonce_odr hidden noundef i64 @_ZNKSt6vectorIN2cv6Point_IfEESaIS2_EE4sizeEv(ptr noundef nonnull align 8 dereferenceable(24) %0) #6 comdat align 2 {
  %2 = alloca ptr, align 8
  store ptr %0, ptr %2, align 8, !tbaa !3
  %3 = load ptr, ptr %2, align 8
  %4 = getelementptr inbounds nuw %"struct.std::_Vector_base.1", ptr %3, i32 0, i32 0
  %5 = getelementptr inbounds nuw %"struct.std::_Vector_base<cv::Point_<float>, std::allocator<cv::Point_<float>>>::_Vector_impl_data", ptr %4, i32 0, i32 1
  %6 = load ptr, ptr %5, align 8, !tbaa !46
  %7 = getelementptr inbounds nuw %"struct.std::_Vector_base.1", ptr %3, i32 0, i32 0
  %8 = getelementptr inbounds nuw %"struct.std::_Vector_base<cv::Point_<float>, std::allocator<cv::Point_<float>>>::_Vector_impl_data", ptr %7, i32 0, i32 0
  %9 = load ptr, ptr %8, align 8, !tbaa !49
  %10 = ptrtoint ptr %6 to i64
  %11 = ptrtoint ptr %9 to i64
  %12 = sub i64 %10, %11
  %13 = sdiv exact i64 %12, 8
  ret i64 %13
}

; Function Attrs: mustprogress uwtable
define hidden noundef float @_ZN2cv3mcc9perimeterERKSt6vectorINS_6Point_IfEESaIS3_EE(ptr noundef nonnull align 8 dereferenceable(24) %0) #4 {
  %2 = alloca ptr, align 8
  %3 = alloca float, align 4
  %4 = alloca float, align 4
  %5 = alloca float, align 4
  %6 = alloca i64, align 8
  %7 = alloca i32, align 4
  store ptr %0, ptr %2, align 8, !tbaa !3
  call void @llvm.lifetime.start.p0(i64 4, ptr %3) #3
  store float 0.000000e+00, ptr %3, align 4, !tbaa !39
  call void @llvm.lifetime.start.p0(i64 4, ptr %4) #3
  call void @llvm.lifetime.start.p0(i64 4, ptr %5) #3
  call void @llvm.lifetime.start.p0(i64 8, ptr %6) #3
  store i64 0, ptr %6, align 8, !tbaa !22
  br label %8

8:                                                ; preds = %56, %1
  %9 = load i64, ptr %6, align 8, !tbaa !22
  %10 = load ptr, ptr %2, align 8, !tbaa !3
  %11 = call noundef i64 @_ZNKSt6vectorIN2cv6Point_IfEESaIS2_EE4sizeEv(ptr noundef nonnull align 8 dereferenceable(24) %10) #3
  %12 = icmp ult i64 %9, %11
  br i1 %12, label %14, label %13

13:                                               ; preds = %8
  call void @llvm.lifetime.end.p0(i64 8, ptr %6) #3
  br label %59

14:                                               ; preds = %8
  call void @llvm.lifetime.start.p0(i64 4, ptr %7) #3
  %15 = load i64, ptr %6, align 8, !tbaa !22
  %16 = add i64 %15, 1
  %17 = load ptr, ptr %2, align 8, !tbaa !3
  %18 = call noundef i64 @_ZNKSt6vectorIN2cv6Point_IfEESaIS2_EE4sizeEv(ptr noundef nonnull align 8 dereferenceable(24) %17) #3
  %19 = trunc i64 %18 to i32
  %20 = sext i32 %19 to i64
  %21 = urem i64 %16, %20
  %22 = trunc i64 %21 to i32
  store i32 %22, ptr %7, align 4, !tbaa !15
  %23 = load ptr, ptr %2, align 8, !tbaa !3
  %24 = load i64, ptr %6, align 8, !tbaa !22
  %25 = call noundef nonnull align 4 dereferenceable(8) ptr @_ZNKSt6vectorIN2cv6Point_IfEESaIS2_EEixEm(ptr noundef nonnull align 8 dereferenceable(24) %23, i64 noundef %24) #3
  %26 = getelementptr inbounds nuw %"class.cv::Point_.5", ptr %25, i32 0, i32 0
  %27 = load float, ptr %26, align 4, !tbaa !41
  %28 = load ptr, ptr %2, align 8, !tbaa !3
  %29 = load i32, ptr %7, align 4, !tbaa !15
  %30 = sext i32 %29 to i64
  %31 = call noundef nonnull align 4 dereferenceable(8) ptr @_ZNKSt6vectorIN2cv6Point_IfEESaIS2_EEixEm(ptr noundef nonnull align 8 dereferenceable(24) %28, i64 noundef %30) #3
  %32 = getelementptr inbounds nuw %"class.cv::Point_.5", ptr %31, i32 0, i32 0
  %33 = load float, ptr %32, align 4, !tbaa !41
  %34 = fsub float %27, %33
  store float %34, ptr %4, align 4, !tbaa !39
  %35 = load ptr, ptr %2, align 8, !tbaa !3
  %36 = load i64, ptr %6, align 8, !tbaa !22
  %37 = call noundef nonnull align 4 dereferenceable(8) ptr @_ZNKSt6vectorIN2cv6Point_IfEESaIS2_EEixEm(ptr noundef nonnull align 8 dereferenceable(24) %35, i64 noundef %36) #3
  %38 = getelementptr inbounds nuw %"class.cv::Point_.5", ptr %37, i32 0, i32 1
  %39 = load float, ptr %38, align 4, !tbaa !43
  %40 = load ptr, ptr %2, align 8, !tbaa !3
  %41 = load i32, ptr %7, align 4, !tbaa !15
  %42 = sext i32 %41 to i64
  %43 = call noundef nonnull align 4 dereferenceable(8) ptr @_ZNKSt6vectorIN2cv6Point_IfEESaIS2_EEixEm(ptr noundef nonnull align 8 dereferenceable(24) %40, i64 noundef %42) #3
  %44 = getelementptr inbounds nuw %"class.cv::Point_.5", ptr %43, i32 0, i32 1
  %45 = load float, ptr %44, align 4, !tbaa !43
  %46 = fsub float %39, %45
  store float %46, ptr %5, align 4, !tbaa !39
  %47 = load float, ptr %4, align 4, !tbaa !39
  %48 = load float, ptr %4, align 4, !tbaa !39
  %49 = load float, ptr %5, align 4, !tbaa !39
  %50 = load float, ptr %5, align 4, !tbaa !39
  %51 = fmul float %49, %50
  %52 = call float @llvm.fmuladd.f32(float %47, float %48, float %51)
  %53 = call noundef float @_ZSt4sqrtf(float noundef %52)
  %54 = load float, ptr %3, align 4, !tbaa !39
  %55 = fadd float %54, %53
  store float %55, ptr %3, align 4, !tbaa !39
  call void @llvm.lifetime.end.p0(i64 4, ptr %7) #3
  br label %56

56:                                               ; preds = %14
  %57 = load i64, ptr %6, align 8, !tbaa !22
  %58 = add i64 %57, 1
  store i64 %58, ptr %6, align 8, !tbaa !22
  br label %8, !llvm.loop !44

59:                                               ; preds = %13
  %60 = load float, ptr %3, align 4, !tbaa !39
  call void @llvm.lifetime.end.p0(i64 4, ptr %5) #3
  call void @llvm.lifetime.end.p0(i64 4, ptr %4) #3
  call void @llvm.lifetime.end.p0(i64 4, ptr %3) #3
  ret float %60
}