; Function Attrs: mustprogress nofree norecurse nosync nounwind willreturn memory(read, inaccessiblemem: none) uwtable
define hidden noundef float @_ZN2cv3mcc9perimeterERKSt6vectorINS_6Point_IfEESaIS3_EE(ptr noundef nonnull readonly align 8 captures(none) dereferenceable(24) %0) local_unnamed_addr #5 {
  %2 = getelementptr inbounds nuw i8, ptr %0, i64 8
  %3 = load ptr, ptr %2, align 8, !tbaa !19
  %4 = load ptr, ptr %0, align 8, !tbaa !22
  %.not = icmp eq ptr %3, %4
  br i1 %.not, label %._crit_edge, label %.lr.ph

.lr.ph:                                           ; preds = %1
  %5 = ptrtoint ptr %3 to i64
  %6 = ptrtoint ptr %4 to i64
  %7 = sub i64 %5, %6
  %8 = ashr exact i64 %7, 3
  %sext = shl i64 %7, 29
  %9 = ashr exact i64 %sext, 32
  %umax = tail call i64 @llvm.umax.i64(i64 %8, i64 1)
  br label %10

._crit_edge:                                      ; preds = %10, %1
  %.0.lcssa = phi float [ 0.000000e+00, %1 ], [ %26, %10 ]
  ret float %.0.lcssa

10:                                               ; preds = %.lr.ph, %10
  %.021 = phi float [ 0.000000e+00, %.lr.ph ], [ %26, %10 ]
  %.01820 = phi i64 [ 0, %.lr.ph ], [ %11, %10 ]
  %11 = add nuw i64 %.01820, 1
  %12 = urem i64 %11, %9
  %13 = getelementptr inbounds nuw %"class.cv::Point_.5", ptr %4, i64 %.01820
  %14 = load float, ptr %13, align 4, !tbaa !23
  %sext19 = shl i64 %12, 32
  %15 = ashr exact i64 %sext19, 29
  %16 = getelementptr inbounds nuw i8, ptr %4, i64 %15
  %17 = load float, ptr %16, align 4, !tbaa !23
  %18 = fsub float %14, %17
  %19 = getelementptr inbounds nuw i8, ptr %13, i64 4
  %20 = load float, ptr %19, align 4, !tbaa !26
  %21 = getelementptr inbounds nuw i8, ptr %16, i64 4
  %22 = load float, ptr %21, align 4, !tbaa !26
  %23 = fsub float %20, %22
  %24 = fmul float %23, %23
  %25 = tail call float @llvm.fmuladd.f32(float %18, float %18, float %24)
  %sqrt = tail call float @llvm.sqrt.f32(float %25)
  %26 = fadd float %.021, %sqrt
  %exitcond.not = icmp eq i64 %11, %umax
  br i1 %exitcond.not, label %._crit_edge, label %10, !llvm.loop !27
}